; Function Attrs: nounwind uwtable
define ptr @l_Array_mapMUnsafe_map___at_Lake_getBinderIds___spec__1___boxed(ptr noundef %0, ptr noundef %1, ptr noundef %2, ptr noundef %3, ptr noundef %4) local_unnamed_addr #0 {
  %6 = getelementptr i8, ptr %0, i64 8
  %.val = load i64, ptr %6, align 8, !tbaa !13
  %7 = ptrtoint ptr %0 to i64
  %8 = and i64 %7, 1
  %.not = icmp eq i64 %8, 0
  br i1 %.not, label %9, label %lean_dec.exit9

9:                                                ; preds = %5
  %10 = load i32, ptr %0, align 4, !tbaa !4
  %11 = icmp sgt i32 %10, 1
  br i1 %11, label %12, label %14, !prof !9

12:                                               ; preds = %9
  %13 = add nsw i32 %10, -1
  store i32 %13, ptr %0, align 4, !tbaa !4
  br label %lean_dec.exit9

14:                                               ; preds = %9
  %.not.i = icmp eq i32 %10, 0
  br i1 %.not.i, label %lean_dec.exit9, label %15

15:                                               ; preds = %14
  tail call void @lean_dec_ref_cold(ptr noundef nonnull %0) #5
  br label %lean_dec.exit9

lean_dec.exit9:                                   ; preds = %15, %14, %12, %5
  %16 = getelementptr i8, ptr %1, i64 8
  %.val12 = load i64, ptr %16, align 8, !tbaa !13
  %17 = ptrtoint ptr %1 to i64
  %18 = and i64 %17, 1
  %.not13 = icmp eq i64 %18, 0
  br i1 %.not13, label %19, label %lean_dec.exit

19:                                               ; preds = %lean_dec.exit9
  %20 = load i32, ptr %1, align 4, !tbaa !4
  %21 = icmp sgt i32 %20, 1
  br i1 %21, label %22, label %24, !prof !9

22:                                               ; preds = %19
  %23 = add nsw i32 %20, -1
  store i32 %23, ptr %1, align 4, !tbaa !4
  br label %lean_dec.exit

24:                                               ; preds = %19
  %.not.i10 = icmp eq i32 %20, 0
  br i1 %.not.i10, label %lean_dec.exit, label %25

25:                                               ; preds = %24
  tail call void @lean_dec_ref_cold(ptr noundef nonnull %1) #5
  br label %lean_dec.exit

lean_dec.exit:                                    ; preds = %25, %24, %22, %lean_dec.exit9
  %26 = tail call ptr @l_Array_mapMUnsafe_map___at_Lake_getBinderIds___spec__1(i64 noundef %.val, i64 noundef %.val12, ptr noundef %2, ptr noundef %3, ptr noundef %4)
  ret ptr %26
}